target datalayout = "e-m:e-p270:32:32-p271:32:32-p272:64:64-i64:64-i128:128-f80:128-n8:16:32:64-S128"
target triple = "x86_64-pc-linux-gnu"

%struct.lua_State = type { %struct.GCRef, i8, i8, i8, i8, %struct.MRef, %struct.GCRef, ptr, ptr, %struct.MRef, %struct.MRef, %struct.GCRef, %struct.GCRef, ptr, i32 }
%struct.MRef = type { i64 }
%struct.GCRef = type { i64 }
%union.TValue = type { i64 }

; Function Attrs: nounwind uwtable
define hidden ptr @lj_lib_checktabornil(ptr noundef %0, i32 noundef %1) #0 {
  %3 = alloca ptr, align 8
  %4 = alloca ptr, align 8
  %5 = alloca i32, align 4
  %6 = alloca ptr, align 8
  %7 = alloca i32, align 4
  store ptr %0, ptr %4, align 8, !tbaa !4
  store i32 %1, ptr %5, align 4, !tbaa !24
  call void @llvm.lifetime.start.p0(i64 8, ptr %6) #9
  %8 = load ptr, ptr %4, align 8, !tbaa !4
  %9 = getelementptr inbounds nuw %struct.lua_State, ptr %8, i32 0, i32 7
  %10 = load ptr, ptr %9, align 8, !tbaa !29
  %11 = load i32, ptr %5, align 4, !tbaa !24
  %12 = sext i32 %11 to i64
  %13 = getelementptr inbounds %union.TValue, ptr %10, i64 %12
  %14 = getelementptr inbounds %union.TValue, ptr %13, i64 -1
  store ptr %14, ptr %6, align 8, !tbaa !48
  %15 = load ptr, ptr %6, align 8, !tbaa !48
  %16 = load ptr, ptr %4, align 8, !tbaa !4
  %17 = getelementptr inbounds nuw %struct.lua_State, ptr %16, i32 0, i32 8
  %18 = load ptr, ptr %17, align 8, !tbaa !28
  %19 = icmp ult ptr %15, %18
  br i1 %19, label %20, label %39

20:                                               ; preds = %2
  %21 = load ptr, ptr %6, align 8, !tbaa !48
  %22 = load i64, ptr %21, align 8, !tbaa !23
  %23 = ashr i64 %22, 47
  %24 = trunc i64 %23 to i32
  %25 = icmp eq i32 %24, -12
  br i1 %25, label %26, label %32

26:                                               ; preds = %20
  %27 = load ptr, ptr %6, align 8, !tbaa !48
  %28 = getelementptr inbounds nuw %struct.GCRef, ptr %27, i32 0, i32 0
  %29 = load i64, ptr %28, align 8, !tbaa !23
  %30 = and i64 %29, 140737488355327
  %31 = inttoptr i64 %30 to ptr
  store ptr %31, ptr %3, align 8
  store i32 1, ptr %7, align 4
  br label %42

32:                                               ; preds = %20
  %33 = load ptr, ptr %6, align 8, !tbaa !48
  %34 = load i64, ptr %33, align 8, !tbaa !23
  %35 = icmp eq i64 %34, -1
  br i1 %35, label %36, label %37

36:                                               ; preds = %32
  store ptr null, ptr %3, align 8
  store i32 1, ptr %7, align 4
  br label %42

37:                                               ; preds = %32
  br label %38

38:                                               ; preds = %37
  br label %39

39:                                               ; preds = %38, %2
  %40 = load ptr, ptr %4, align 8, !tbaa !4
  %41 = load i32, ptr %5, align 4, !tbaa !24
  call void @lj_err_arg(ptr noundef %40, i32 noundef %41, i32 noundef 585) #10
  unreachable

42:                                               ; preds = %36, %26
  call void @llvm.lifetime.end.p0(i64 8, ptr %6) #9
  %43 = load ptr, ptr %3, align 8
  ret ptr %43
}